
test:     file format elf32-loongarch


Disassembly of section .plt:

000103a0 <.plt>:
   103a0:	1c00010e 	pcaddu12i	$r14,8(0x8)
   103a4:	00113dad 	sub.w	$r13,$r13,$r15
   103a8:	28b181cf 	ld.w	$r15,$r14,-928(0xc60)
   103ac:	02bf61ad 	addi.w	$r13,$r13,-40(0xfd8)
   103b0:	02b181cc 	addi.w	$r12,$r14,-928(0xc60)
   103b4:	004489ad 	srli.w	$r13,$r13,0x2
   103b8:	2880118c 	ld.w	$r12,$r12,4(0x4)
   103bc:	4c0001e0 	jirl	$r0,$r15,0

000103c0 <memcpy@plt>:
   103c0:	1c00010f 	pcaddu12i	$r15,8(0x8)
   103c4:	28b121ef 	ld.w	$r15,$r15,-952(0xc48)
   103c8:	1c00000d 	pcaddu12i	$r13,0
   103cc:	4c0001e0 	jirl	$r0,$r15,0

Disassembly of section .text:

000103d0 <_start>:
   103d0:	00150089 	move	$r9,$r4
   103d4:	1c000104 	pcaddu12i	$r4,8(0x8)
   103d8:	28b16084 	ld.w	$r4,$r4,-936(0xc58)
   103dc:	28800065 	ld.w	$r5,$r3,0
   103e0:	02801066 	addi.w	$r6,$r3,4(0x4)
   103e4:	00449063 	srli.w	$r3,$r3,0x4
   103e8:	00409063 	slli.w	$r3,$r3,0x4
   103ec:	1c000107 	pcaddu12i	$r7,8(0x8)
   103f0:	28b0f0e7 	ld.w	$r7,$r7,-964(0xc3c)
   103f4:	1c000108 	pcaddu12i	$r8,8(0x8)
   103f8:	28b09108 	ld.w	$r8,$r8,-988(0xc24)
   103fc:	0015006a 	move	$r10,$r3
   10400:	1c000101 	pcaddu12i	$r1,8(0x8)
   10404:	28b08021 	ld.w	$r1,$r1,-992(0xc20)
   10408:	4c000021 	jirl	$r1,$r1,0
   1040c:	1c000101 	pcaddu12i	$r1,8(0x8)
   10410:	28b06021 	ld.w	$r1,$r1,-1000(0xc18)
   10414:	4c000021 	jirl	$r1,$r1,0

00010418 <deregister_tm_clones>:
   10418:	02bfc063 	addi.w	$r3,$r3,-16(0xff0)
   1041c:	29803076 	st.w	$r22,$r3,12(0xc)
   10420:	02804076 	addi.w	$r22,$r3,16(0x10)
   10424:	1c000104 	pcaddu12i	$r4,8(0x8)
   10428:	02afa084 	addi.w	$r4,$r4,-1048(0xbe8)
   1042c:	2880008c 	ld.w	$r12,$r4,0
   10430:	58001d80 	beq	$r12,$r0,28(0x1c) # 1044c <deregister_tm_clones+0x34>
   10434:	1c00010c 	pcaddu12i	$r12,8(0x8)
   10438:	28afa18c 	ld.w	$r12,$r12,-1048(0xbe8)
   1043c:	58001180 	beq	$r12,$r0,16(0x10) # 1044c <deregister_tm_clones+0x34>
   10440:	28803076 	ld.w	$r22,$r3,12(0xc)
   10444:	02804063 	addi.w	$r3,$r3,16(0x10)
   10448:	4c000180 	jirl	$r0,$r12,0
   1044c:	28803076 	ld.w	$r22,$r3,12(0xc)
   10450:	02804063 	addi.w	$r3,$r3,16(0x10)
   10454:	4c000020 	jirl	$r0,$r1,0

00010458 <register_tm_clones>:
   10458:	02bfc063 	addi.w	$r3,$r3,-16(0xff0)
   1045c:	29803076 	st.w	$r22,$r3,12(0xc)
   10460:	02804076 	addi.w	$r22,$r3,16(0x10)
   10464:	1c00010c 	pcaddu12i	$r12,8(0x8)
   10468:	02aea18c 	addi.w	$r12,$r12,-1112(0xba8)
   1046c:	2880018d 	ld.w	$r13,$r12,0
   10470:	580041a0 	beq	$r13,$r0,64(0x40) # 104b0 <register_tm_clones+0x58>
   10474:	0280218c 	addi.w	$r12,$r12,8(0x8)
   10478:	00150005 	move	$r5,$r0
   1047c:	0280218c 	addi.w	$r12,$r12,8(0x8)
   10480:	28bfe18d 	ld.w	$r13,$r12,-8(0xff8)
   10484:	028004a5 	addi.w	$r5,$r5,1(0x1)
   10488:	5ffff5a0 	bne	$r13,$r0,-12(0x3fff4) # 1047c <register_tm_clones+0x24>
   1048c:	580024a0 	beq	$r5,$r0,36(0x24) # 104b0 <register_tm_clones+0x58>
   10490:	1c00010c 	pcaddu12i	$r12,8(0x8)
   10494:	28ae818c 	ld.w	$r12,$r12,-1120(0xba0)
   10498:	58001980 	beq	$r12,$r0,24(0x18) # 104b0 <register_tm_clones+0x58>
   1049c:	28803076 	ld.w	$r22,$r3,12(0xc)
   104a0:	1c000104 	pcaddu12i	$r4,8(0x8)
   104a4:	02adb084 	addi.w	$r4,$r4,-1172(0xb6c)
   104a8:	02804063 	addi.w	$r3,$r3,16(0x10)
   104ac:	4c000180 	jirl	$r0,$r12,0
   104b0:	28803076 	ld.w	$r22,$r3,12(0xc)
   104b4:	02804063 	addi.w	$r3,$r3,16(0x10)
   104b8:	4c000020 	jirl	$r0,$r1,0

000104bc <__do_global_dtors_aux>:
   104bc:	02bfc063 	addi.w	$r3,$r3,-16(0xff0)
   104c0:	29802076 	st.w	$r22,$r3,8(0x8)
   104c4:	29801077 	st.w	$r23,$r3,4(0x4)
   104c8:	29803061 	st.w	$r1,$r3,12(0xc)
   104cc:	02804076 	addi.w	$r22,$r3,16(0x10)
   104d0:	1c000117 	pcaddu12i	$r23,8(0x8)
   104d4:	02ada2f7 	addi.w	$r23,$r23,-1176(0xb68)
   104d8:	2a0002ec 	ld.bu	$r12,$r23,0
   104dc:	5c001180 	bne	$r12,$r0,16(0x10) # 104ec <__do_global_dtors_aux+0x30>
   104e0:	57ff3bff 	bl	-200(0xfffff38) # 10418 <deregister_tm_clones>
   104e4:	0280040c 	addi.w	$r12,$r0,1(0x1)
   104e8:	290002ec 	st.b	$r12,$r23,0
   104ec:	28803061 	ld.w	$r1,$r3,12(0xc)
   104f0:	28802076 	ld.w	$r22,$r3,8(0x8)
   104f4:	28801077 	ld.w	$r23,$r3,4(0x4)
   104f8:	02804063 	addi.w	$r3,$r3,16(0x10)
   104fc:	4c000020 	jirl	$r0,$r1,0

00010500 <frame_dummy>:
   10500:	02bfc063 	addi.w	$r3,$r3,-16(0xff0)
   10504:	29803076 	st.w	$r22,$r3,12(0xc)
   10508:	02804076 	addi.w	$r22,$r3,16(0x10)
   1050c:	28803076 	ld.w	$r22,$r3,12(0xc)
   10510:	02804063 	addi.w	$r3,$r3,16(0x10)
   10514:	53ff47ff 	b	-188(0xfffff44) # 10458 <register_tm_clones>

00010518 <bubble_sort>:
   10518:	02bf4063 	addi.w	$r3,$r3,-48(0xfd0)
   1051c:	2980b076 	st.w	$r22,$r3,44(0x2c)
   10520:	0280c076 	addi.w	$r22,$r3,48(0x30)
   10524:	29bf72c4 	st.w	$r4,$r22,-36(0xfdc)
   10528:	29bf62c5 	st.w	$r5,$r22,-40(0xfd8)
   1052c:	29bfb2c0 	st.w	$r0,$r22,-20(0xfec)
   10530:	5000cc00 	b	204(0xcc) # 105fc <bubble_sort+0xe4>
   10534:	29bfa2c0 	st.w	$r0,$r22,-24(0xfe8)
   10538:	5000a000 	b	160(0xa0) # 105d8 <bubble_sort+0xc0>
   1053c:	28bfa2cc 	ld.w	$r12,$r22,-24(0xfe8)
   10540:	0040898c 	slli.w	$r12,$r12,0x2
   10544:	28bf72cd 	ld.w	$r13,$r22,-36(0xfdc)
   10548:	001031ac 	add.w	$r12,$r13,$r12
   1054c:	2880018d 	ld.w	$r13,$r12,0
   10550:	28bfa2cc 	ld.w	$r12,$r22,-24(0xfe8)
   10554:	0280058c 	addi.w	$r12,$r12,1(0x1)
   10558:	0040898c 	slli.w	$r12,$r12,0x2
   1055c:	28bf72ce 	ld.w	$r14,$r22,-36(0xfdc)
   10560:	001031cc 	add.w	$r12,$r14,$r12
   10564:	2880018c 	ld.w	$r12,$r12,0
   10568:	6400658d 	bge	$r12,$r13,100(0x64) # 105cc <bubble_sort+0xb4>
   1056c:	28bfa2cc 	ld.w	$r12,$r22,-24(0xfe8)
   10570:	0280058c 	addi.w	$r12,$r12,1(0x1)
   10574:	0040898c 	slli.w	$r12,$r12,0x2
   10578:	28bf72cd 	ld.w	$r13,$r22,-36(0xfdc)
   1057c:	001031ac 	add.w	$r12,$r13,$r12
   10580:	2880018c 	ld.w	$r12,$r12,0
   10584:	29bf92cc 	st.w	$r12,$r22,-28(0xfe4)
   10588:	28bfa2cc 	ld.w	$r12,$r22,-24(0xfe8)
   1058c:	0040898c 	slli.w	$r12,$r12,0x2
   10590:	28bf72cd 	ld.w	$r13,$r22,-36(0xfdc)
   10594:	001031ad 	add.w	$r13,$r13,$r12
   10598:	28bfa2cc 	ld.w	$r12,$r22,-24(0xfe8)
   1059c:	0280058c 	addi.w	$r12,$r12,1(0x1)
   105a0:	0040898c 	slli.w	$r12,$r12,0x2
   105a4:	28bf72ce 	ld.w	$r14,$r22,-36(0xfdc)
   105a8:	001031cc 	add.w	$r12,$r14,$r12
   105ac:	288001ad 	ld.w	$r13,$r13,0
   105b0:	2980018d 	st.w	$r13,$r12,0
   105b4:	28bfa2cc 	ld.w	$r12,$r22,-24(0xfe8)
   105b8:	0040898c 	slli.w	$r12,$r12,0x2
   105bc:	28bf72cd 	ld.w	$r13,$r22,-36(0xfdc)
   105c0:	001031ac 	add.w	$r12,$r13,$r12
   105c4:	28bf92cd 	ld.w	$r13,$r22,-28(0xfe4)
   105c8:	2980018d 	st.w	$r13,$r12,0
   105cc:	28bfa2cc 	ld.w	$r12,$r22,-24(0xfe8)
   105d0:	0280058c 	addi.w	$r12,$r12,1(0x1)
   105d4:	29bfa2cc 	st.w	$r12,$r22,-24(0xfe8)
   105d8:	28bf62cc 	ld.w	$r12,$r22,-40(0xfd8)
   105dc:	02bffd8d 	addi.w	$r13,$r12,-1(0xfff)
   105e0:	28bfb2cc 	ld.w	$r12,$r22,-20(0xfec)
   105e4:	001131ac 	sub.w	$r12,$r13,$r12
   105e8:	28bfa2cd 	ld.w	$r13,$r22,-24(0xfe8)
   105ec:	63ff51ac 	blt	$r13,$r12,-176(0x3ff50) # 1053c <bubble_sort+0x24>
   105f0:	28bfb2cc 	ld.w	$r12,$r22,-20(0xfec)
   105f4:	0280058c 	addi.w	$r12,$r12,1(0x1)
   105f8:	29bfb2cc 	st.w	$r12,$r22,-20(0xfec)
   105fc:	28bfb2cd 	ld.w	$r13,$r22,-20(0xfec)
   10600:	28bf62cc 	ld.w	$r12,$r22,-40(0xfd8)
   10604:	63ff31ac 	blt	$r13,$r12,-208(0x3ff30) # 10534 <bubble_sort+0x1c>
   10608:	0015000c 	move	$r12,$r0
   1060c:	00150184 	move	$r4,$r12
   10610:	2880b076 	ld.w	$r22,$r3,44(0x2c)
   10614:	0280c063 	addi.w	$r3,$r3,48(0x30)
   10618:	4c000020 	jirl	$r0,$r1,0

0001061c <main>:
   1061c:	02bf0063 	addi.w	$r3,$r3,-64(0xfc0)
   10620:	2980f061 	st.w	$r1,$r3,60(0x3c)
   10624:	2980e076 	st.w	$r22,$r3,56(0x38)
   10628:	02810076 	addi.w	$r22,$r3,64(0x40)
   1062c:	1c00000c 	pcaddu12i	$r12,0
   10630:	0283918c 	addi.w	$r12,$r12,228(0xe4)
   10634:	02bf22ce 	addi.w	$r14,$r22,-56(0xfc8)
   10638:	0015018d 	move	$r13,$r12
   1063c:	0280a00c 	addi.w	$r12,$r0,40(0x28)
   10640:	00150186 	move	$r6,$r12
   10644:	001501a5 	move	$r5,$r13
   10648:	001501c4 	move	$r4,$r14
   1064c:	57fd77ff 	bl	-652(0xffffd74) # 103c0 <memcpy@plt>
   10650:	02bf22cc 	addi.w	$r12,$r22,-56(0xfc8)
   10654:	02802805 	addi.w	$r5,$r0,10(0xa)
   10658:	00150184 	move	$r4,$r12
   1065c:	57febfff 	bl	-324(0xffffebc) # 10518 <bubble_sort>
   10660:	0015000c 	move	$r12,$r0
   10664:	00150184 	move	$r4,$r12
   10668:	2880f061 	ld.w	$r1,$r3,60(0x3c)
   1066c:	2880e076 	ld.w	$r22,$r3,56(0x38)
   10670:	02810063 	addi.w	$r3,$r3,64(0x40)
   10674:	4c000020 	jirl	$r0,$r1,0

00010678 <__libc_csu_init>:
   10678:	02bf8063 	addi.w	$r3,$r3,-32(0xfe0)
   1067c:	29806077 	st.w	$r23,$r3,24(0x18)
   10680:	29804079 	st.w	$r25,$r3,16(0x10)
   10684:	1c000117 	pcaddu12i	$r23,8(0x8)
   10688:	02a252f7 	addi.w	$r23,$r23,-1900(0x894)
   1068c:	1c000119 	pcaddu12i	$r25,8(0x8)
   10690:	02a24339 	addi.w	$r25,$r25,-1904(0x890)
   10694:	00115f39 	sub.w	$r25,$r25,$r23
   10698:	29807061 	st.w	$r1,$r3,28(0x1c)
   1069c:	29805078 	st.w	$r24,$r3,20(0x14)
   106a0:	2980307a 	st.w	$r26,$r3,12(0xc)
   106a4:	2980207b 	st.w	$r27,$r3,8(0x8)
   106a8:	2980107c 	st.w	$r28,$r3,4(0x4)
   106ac:	00488b39 	srai.w	$r25,$r25,0x2
   106b0:	58003720 	beq	$r25,$r0,52(0x34) # 106e4 <__libc_csu_init+0x6c>
   106b4:	001500dc 	move	$r28,$r6
   106b8:	001500bb 	move	$r27,$r5
   106bc:	0015009a 	move	$r26,$r4
   106c0:	00150018 	move	$r24,$r0
   106c4:	288002ec 	ld.w	$r12,$r23,0
   106c8:	00150386 	move	$r6,$r28
   106cc:	00150365 	move	$r5,$r27
   106d0:	00150344 	move	$r4,$r26
   106d4:	02800718 	addi.w	$r24,$r24,1(0x1)
   106d8:	4c000181 	jirl	$r1,$r12,0
   106dc:	028012f7 	addi.w	$r23,$r23,4(0x4)
   106e0:	5fffe738 	bne	$r25,$r24,-28(0x3ffe4) # 106c4 <__libc_csu_init+0x4c>
   106e4:	28807061 	ld.w	$r1,$r3,28(0x1c)
   106e8:	28806077 	ld.w	$r23,$r3,24(0x18)
   106ec:	28805078 	ld.w	$r24,$r3,20(0x14)
   106f0:	28804079 	ld.w	$r25,$r3,16(0x10)
   106f4:	2880307a 	ld.w	$r26,$r3,12(0xc)
   106f8:	2880207b 	ld.w	$r27,$r3,8(0x8)
   106fc:	2880107c 	ld.w	$r28,$r3,4(0x4)
   10700:	02808063 	addi.w	$r3,$r3,32(0x20)
   10704:	4c000020 	jirl	$r0,$r1,0

00010708 <__libc_csu_fini>:
   10708:	4c000020 	jirl	$r0,$r1,0
